; Function Attrs: nounwind uwtable
define ptr @curl_ws_meta(ptr noundef %0) local_unnamed_addr #0 {
  %.not = icmp eq ptr %0, null
  br i1 %.not, label %18, label %2

2:                                                ; preds = %1
  %3 = load i32, ptr %0, align 8, !tbaa !142
  %4 = icmp eq i32 %3, -1059136595
  br i1 %4, label %5, label %18

5:                                                ; preds = %2
  %6 = tail call zeroext i1 @Curl_is_in_callback(ptr noundef nonnull %0) #7
  br i1 %6, label %7, label %18

7:                                                ; preds = %5
  %8 = getelementptr inbounds nuw i8, ptr %0, i64 24
  %9 = load ptr, ptr %8, align 8, !tbaa !26
  %.not12 = icmp eq ptr %9, null
  br i1 %.not12, label %18, label %10

10:                                               ; preds = %7
  %11 = getelementptr inbounds nuw i8, ptr %9, i64 1088
  %12 = load ptr, ptr %11, align 8, !tbaa !84
  %.not13 = icmp eq ptr %12, null
  br i1 %.not13, label %18, label %13

13:                                               ; preds = %10
  %14 = getelementptr inbounds nuw i8, ptr %0, i64 2658
  %15 = load i64, ptr %14, align 2
  %16 = and i64 %15, 72057594037927936
  %.not14 = icmp eq i64 %16, 0
  %17 = getelementptr inbounds nuw i8, ptr %12, i64 216
  %spec.select = select i1 %.not14, ptr %17, ptr null
  br label %18

18:                                               ; preds = %13, %1, %2, %5, %7, %10
  %.0 = phi ptr [ null, %10 ], [ null, %7 ], [ null, %5 ], [ null, %2 ], [ null, %1 ], [ %spec.select, %13 ]
  ret ptr %.0
}